(dp1
S'United States'
p2
(F-100.4458825
F39.783730400000003
tp3
sS'Canada'
p4
(F-107.9917071
F61.066692199999999
tp5
sS'ON, Canada'
p6
(F-86.000977000000006
F50.000678000000001
tp7
sS'Halifax, NS, Canada'
p8
(F-63.575133999999998
F44.649119800000001
tp9
sS'NEWPORT, RI, United States'
p10
(F-71.313770700000006
F41.489982699999999
tp11
s.